; Function Attrs: mustprogress nounwind uwtable
define dso_local void @_ZN30btMultiBodySphericalJointMotorD0Ev(ptr noundef nonnull align 8 dereferenceable(204) %this) unnamed_addr #3 align 2 personality ptr @__gxx_personality_v0 {
entry:
  tail call void @_ZN21btMultiBodyConstraintD2Ev(ptr noundef nonnull align 8 dereferenceable(96) %this) #11
  invoke void @_Z21btAlignedFreeInternalPv(ptr noundef nonnull %this)
          to label %_ZN21btMultiBodyConstraintdlEPv.exit unwind label %terminate.lpad.i

terminate.lpad.i:                                 ; preds = %entry
  %0 = landingpad { ptr, i32 }
          catch ptr null
  %1 = extractvalue { ptr, i32 } %0, 0
  tail call void @__clang_call_terminate(ptr %1) #12
  unreachable

_ZN21btMultiBodyConstraintdlEPv.exit:             ; preds = %entry
  ret void
}